(dp1
S'dirserver_plugin'
p2
ccopy_reg
_reconstructor
p3
(ctwisted.plugin
CachedDropin
p4
c__builtin__
object
p5
NtRp6
(dp7
S'moduleName'
p8
S'twisted.plugins.dirserver_plugin'
p9
sS'description'
p10
NsS'plugins'
p11
(lp12
g3
(ctwisted.plugin
CachedPlugin
p13
g5
NtRp14
(dp15
S'provided'
p16
(lp17
ctwisted.plugin
IPlugin
p18
actwisted.application.service
IServiceMaker
p19
asS'dropin'
p20
g6
sS'name'
p21
S'serviceMaker'
p22
sg10
NsbasbsS'storenode_plugin'
p23
g3
(g4
g5
NtRp24
(dp25
S'moduleName'
p26
S'twisted.plugins.storenode_plugin'
p27
sS'description'
p28
NsS'plugins'
p29
(lp30
g3
(g13
g5
NtRp31
(dp32
S'provided'
p33
(lp34
g18
ag19
asS'dropin'
p35
g24
sS'name'
p36
S'serviceMaker'
p37
sg28
Nsbasbs.